; Function Attrs: mustprogress uwtable
define internal noundef zeroext i1 @_ZNSt17_Function_handlerIFbRKSt6vectorI18cmListFileArgumentSaIS1_EER17cmExecutionStatusEN12_GLOBAL__N_121cmCTestAddTestCommandEE10_M_managerERSt9_Any_dataRKSC_St18_Manager_operation(ptr nocapture noundef nonnull align 8 dereferenceable(16) %0, ptr nocapture noundef nonnull readonly align 8 dereferenceable(16) %1, i32 noundef %2) #3 align 2 {
  switch i32 %2, label %_ZNSt14_Function_base13_Base_managerIN12_GLOBAL__N_121cmCTestAddTestCommandEE10_M_managerERSt9_Any_dataRKS4_St18_Manager_operation.exit [
    i32 0, label %4
    i32 1, label %5
    i32 3, label %10
    i32 2, label %6
  ]

4:                                                ; preds = %3
  store ptr @_ZTIN12_GLOBAL__N_121cmCTestAddTestCommandE, ptr %0, align 8
  br label %_ZNSt14_Function_base13_Base_managerIN12_GLOBAL__N_121cmCTestAddTestCommandEE10_M_managerERSt9_Any_dataRKS4_St18_Manager_operation.exit

5:                                                ; preds = %3
  %.val = load ptr, ptr %1, align 8
  store ptr %.val, ptr %0, align 8
  br label %_ZNSt14_Function_base13_Base_managerIN12_GLOBAL__N_121cmCTestAddTestCommandEE10_M_managerERSt9_Any_dataRKS4_St18_Manager_operation.exit

6:                                                ; preds = %3
  %.val6 = load ptr, ptr %1, align 8
  %7 = getelementptr i8, ptr %.val6, i64 8
  %.val7.i = load ptr, ptr %7, align 8
  %8 = tail call noalias noundef nonnull dereferenceable(16) ptr @_Znwm(i64 noundef 16) #31
  %9 = getelementptr inbounds i8, ptr %8, i64 8
  store ptr %.val7.i, ptr %9, align 8
  store ptr getelementptr inbounds ({ [5 x ptr] }, ptr @_ZTVN12_GLOBAL__N_121cmCTestAddTestCommandE, i64 0, i32 0, i64 2), ptr %8, align 8
  store ptr %8, ptr %0, align 8
  br label %_ZNSt14_Function_base13_Base_managerIN12_GLOBAL__N_121cmCTestAddTestCommandEE10_M_managerERSt9_Any_dataRKS4_St18_Manager_operation.exit

10:                                               ; preds = %3
  %.val8.i = load ptr, ptr %0, align 8
  %11 = icmp eq ptr %.val8.i, null
  br i1 %11, label %_ZNSt14_Function_base13_Base_managerIN12_GLOBAL__N_121cmCTestAddTestCommandEE10_M_managerERSt9_Any_dataRKS4_St18_Manager_operation.exit, label %12

12:                                               ; preds = %10
  %13 = load ptr, ptr %.val8.i, align 8
  %14 = getelementptr inbounds i8, ptr %13, i64 8
  %15 = load ptr, ptr %14, align 8
  tail call void %15(ptr noundef nonnull align 8 dereferenceable(16) %.val8.i) #25
  br label %_ZNSt14_Function_base13_Base_managerIN12_GLOBAL__N_121cmCTestAddTestCommandEE10_M_managerERSt9_Any_dataRKS4_St18_Manager_operation.exit

_ZNSt14_Function_base13_Base_managerIN12_GLOBAL__N_121cmCTestAddTestCommandEE10_M_managerERSt9_Any_dataRKS4_St18_Manager_operation.exit: ; preds = %3, %12, %10, %6, %5, %4
  ret i1 false
}